target datalayout = "e-m:e-p270:32:32-p271:32:32-p272:64:64-i64:64-i128:128-f80:128-n8:16:32:64-S128"
target triple = "x86_64-pc-linux-gnu"

%class.FieldInformation = type { %class.QObject, %class.IDataPrintable, ptr, ptr }
%class.QObject = type { ptr, %class.QScopedPointer }
%class.QScopedPointer = type { ptr }
%class.IDataPrintable = type { ptr }
%struct.field_info = type { ptr, i32, i32, i32, i32, i32, i32, ptr, ptr, ptr, i32, i32 }

; Function Attrs: mustprogress nounwind uwtable
define noundef ptr @_ZNK16FieldInformation9fieldInfoEv(ptr noundef nonnull align 8 dereferenceable(40) %0) #2 align 2 {
  %2 = alloca ptr, align 8
  store ptr %0, ptr %2, align 8
  %3 = load ptr, ptr %2, align 8
  %4 = getelementptr inbounds %class.FieldInformation, ptr %3, i32 0, i32 2
  %5 = load ptr, ptr %4, align 8
  ret ptr %5
}

; Function Attrs: mustprogress nounwind uwtable
define noundef zeroext i1 @_ZN16FieldInformation11tvbContainsEPS_(ptr noundef nonnull align 8 dereferenceable(40) %0, ptr noundef %1) #2 align 2 {
  %3 = alloca i1, align 1
  %4 = alloca ptr, align 8
  %5 = alloca ptr, align 8
  store ptr %0, ptr %4, align 8
  store ptr %1, ptr %5, align 8
  %6 = load ptr, ptr %4, align 8
  %7 = getelementptr inbounds %class.FieldInformation, ptr %6, i32 0, i32 2
  %8 = load ptr, ptr %7, align 8
  %9 = icmp ne ptr %8, null
  br i1 %9, label %10, label %24

10:                                               ; preds = %2
  %11 = load ptr, ptr %5, align 8
  %12 = icmp ne ptr %11, null
  br i1 %12, label %13, label %24

13:                                               ; preds = %10
  %14 = getelementptr inbounds %class.FieldInformation, ptr %6, i32 0, i32 2
  %15 = load ptr, ptr %14, align 8
  %16 = getelementptr inbounds %struct.field_info, ptr %15, i32 0, i32 8
  %17 = load ptr, ptr %16, align 8
  %18 = load ptr, ptr %5, align 8
  %19 = call noundef ptr @_ZNK16FieldInformation9fieldInfoEv(ptr noundef nonnull align 8 dereferenceable(40) %18)
  %20 = getelementptr inbounds %struct.field_info, ptr %19, i32 0, i32 8
  %21 = load ptr, ptr %20, align 8
  %22 = icmp eq ptr %17, %21
  br i1 %22, label %23, label %24

23:                                               ; preds = %13
  store i1 true, ptr %3, align 1
  br label %25

24:                                               ; preds = %13, %10, %2
  store i1 false, ptr %3, align 1
  br label %25

25:                                               ; preds = %24, %23
  %26 = load i1, ptr %3, align 1
  ret i1 %26
}