; Function Attrs: mustprogress nofree norecurse nosync nounwind willreturn memory(read, inaccessiblemem: none) uwtable
define noundef zeroext i1 @_ZN16FieldInformation11tvbContainsEPS_(ptr nocapture noundef nonnull readonly align 8 dereferenceable(40) %0, ptr noundef readonly %1) local_unnamed_addr #4 align 2 {
  %3 = getelementptr inbounds i8, ptr %0, i64 24
  %4 = load ptr, ptr %3, align 8
  %5 = icmp ne ptr %4, null
  %6 = icmp ne ptr %1, null
  %or.cond = and i1 %6, %5
  br i1 %or.cond, label %7, label %15

7:                                                ; preds = %2
  %8 = getelementptr inbounds i8, ptr %4, i64 40
  %9 = load ptr, ptr %8, align 8
  %10 = getelementptr inbounds i8, ptr %1, i64 24
  %11 = load ptr, ptr %10, align 8
  %12 = getelementptr inbounds i8, ptr %11, i64 40
  %13 = load ptr, ptr %12, align 8
  %14 = icmp eq ptr %9, %13
  br i1 %14, label %16, label %15

15:                                               ; preds = %7, %2
  br label %16

16:                                               ; preds = %7, %15
  %.0 = phi i1 [ false, %15 ], [ true, %7 ]
  ret i1 %.0
}